; Function Attrs: nounwind uwtable
define void @Llb_Nonlin4SweepPrint(ptr noundef readonly captures(none) %0) local_unnamed_addr #2 {
  %2 = getelementptr i8, ptr %0, i64 4
  %.val6 = load i32, ptr %2, align 4, !tbaa !29
  %3 = tail call i32 (ptr, ...) @printf(ptr noundef nonnull dereferenceable(1) @.str.1, i32 noundef %.val6)
  %.val8 = load i32, ptr %2, align 4, !tbaa !29
  %4 = icmp sgt i32 %.val8, 0
  br i1 %4, label %.lr.ph, label %.critedge

.lr.ph:                                           ; preds = %1
  %5 = getelementptr i8, ptr %0, i64 8
  br label %6

6:                                                ; preds = %.lr.ph, %6
  %indvars.iv = phi i64 [ 0, %.lr.ph ], [ %indvars.iv.next, %6 ]
  %.val7 = load ptr, ptr %5, align 8, !tbaa !36
  %7 = getelementptr inbounds nuw ptr, ptr %.val7, i64 %indvars.iv
  %8 = load ptr, ptr %7, align 8, !tbaa !37
  %9 = tail call i32 @Cudd_DagSize(ptr noundef %8) #13
  %10 = tail call i32 (ptr, ...) @printf(ptr noundef nonnull dereferenceable(1) @.str.2, i32 noundef %9)
  %indvars.iv.next = add nuw nsw i64 %indvars.iv, 1
  %.val = load i32, ptr %2, align 4, !tbaa !29
  %11 = sext i32 %.val to i64
  %12 = icmp slt i64 %indvars.iv.next, %11
  br i1 %12, label %6, label %.critedge, !llvm.loop !72

.critedge:                                        ; preds = %6, %1
  %putchar = tail call i32 @putchar(i32 10)
  ret void
}